target datalayout = "e-m:e-p270:32:32-p271:32:32-p272:64:64-i64:64-i128:128-f80:128-n8:16:32:64-S128"
target triple = "x86_64-pc-linux-gnu"

%struct.sat_solver3_t = type { i32, i32, i32, i32, %struct.Sat_Mem_t_, i32, i32, ptr, ptr, i32, i32, i32, i32, i32, i64, i64, i64, ptr, ptr, i32, i32, %struct.veci_t, ptr, i32, ptr, ptr, ptr, ptr, ptr, ptr, ptr, ptr, %struct.veci_t, %struct.veci_t, %struct.veci_t, %struct.veci_t, ptr, %struct.veci_t, i32, i32, i32, double, double, i32, i32, %struct.stats_t, i32, i32, i32, i32, i32, i64, i64, i64, %struct.veci_t, ptr, i32, i32, i32, %struct.veci_t, %struct.veci_t, i32, i32, i32, ptr, ptr, i32, ptr, i32, i32, %struct.veci_t, ptr, ptr }
%struct.Sat_Mem_t_ = type { [2 x i32], [2 x i32], [2 x i32], [2 x i32], i32, i32, i32, i32, ptr }
%struct.stats_t = type { i32, i32, i32, i64, i64, i64, i64, i64, i64, i64 }
%struct.veci_t = type { i32, i32, ptr }

; Function Attrs: inlinehint nounwind uwtable
define internal double @Sat_MemMemoryAll(ptr noundef %0) #1 {
  %2 = alloca ptr, align 8
  store ptr %0, ptr %2, align 8, !tbaa !51
  %3 = load ptr, ptr %2, align 8, !tbaa !51
  %4 = getelementptr inbounds nuw %struct.Sat_Mem_t_, ptr %3, i32 0, i32 3
  %5 = getelementptr inbounds [2 x i32], ptr %4, i64 0, i64 0
  %6 = load i32, ptr %5, align 8, !tbaa !8
  %7 = load ptr, ptr %2, align 8, !tbaa !51
  %8 = getelementptr inbounds nuw %struct.Sat_Mem_t_, ptr %7, i32 0, i32 3
  %9 = getelementptr inbounds [2 x i32], ptr %8, i64 0, i64 1
  %10 = load i32, ptr %9, align 4, !tbaa !8
  %11 = add nsw i32 %6, %10
  %12 = add nsw i32 %11, 2
  %13 = sitofp i32 %12 to double
  %14 = fmul double 1.000000e+00, %13
  %15 = load ptr, ptr %2, align 8, !tbaa !51
  %16 = getelementptr inbounds nuw %struct.Sat_Mem_t_, ptr %15, i32 0, i32 4
  %17 = load i32, ptr %16, align 8, !tbaa !54
  %18 = add nsw i32 %17, 2
  %19 = shl i32 1, %18
  %20 = sitofp i32 %19 to double
  %21 = fmul double %14, %20
  ret double %21
}

; Function Attrs: nounwind uwtable
define double @sat_solver3_memory(ptr noundef %0) #0 {
  %2 = alloca ptr, align 8
  %3 = alloca i32, align 4
  %4 = alloca double, align 8
  store ptr %0, ptr %2, align 8, !tbaa !3
  call void @llvm.lifetime.start.p0(i64 4, ptr %3) #13
  call void @llvm.lifetime.start.p0(i64 8, ptr %4) #13
  store double 6.720000e+02, ptr %4, align 8, !tbaa !34
  store i32 0, ptr %3, align 4, !tbaa !8
  br label %5

5:                                                ; preds = %26, %1
  %6 = load i32, ptr %3, align 4, !tbaa !8
  %7 = load ptr, ptr %2, align 8, !tbaa !3
  %8 = getelementptr inbounds nuw %struct.sat_solver3_t, ptr %7, i32 0, i32 1
  %9 = load i32, ptr %8, align 4, !tbaa !76
  %10 = mul nsw i32 %9, 2
  %11 = icmp slt i32 %6, %10
  br i1 %11, label %12, label %29

12:                                               ; preds = %5
  %13 = load ptr, ptr %2, align 8, !tbaa !3
  %14 = getelementptr inbounds nuw %struct.sat_solver3_t, ptr %13, i32 0, i32 8
  %15 = load ptr, ptr %14, align 8, !tbaa !50
  %16 = load i32, ptr %3, align 4, !tbaa !8
  %17 = sext i32 %16 to i64
  %18 = getelementptr inbounds %struct.veci_t, ptr %15, i64 %17
  %19 = getelementptr inbounds nuw %struct.veci_t, ptr %18, i32 0, i32 0
  %20 = load i32, ptr %19, align 8, !tbaa !47
  %21 = sext i32 %20 to i64
  %22 = mul i64 %21, 4
  %23 = uitofp i64 %22 to double
  %24 = load double, ptr %4, align 8, !tbaa !34
  %25 = fadd double %24, %23
  store double %25, ptr %4, align 8, !tbaa !34
  br label %26

26:                                               ; preds = %12
  %27 = load i32, ptr %3, align 4, !tbaa !8
  %28 = add nsw i32 %27, 1
  store i32 %28, ptr %3, align 4, !tbaa !8
  br label %5, !llvm.loop !104

29:                                               ; preds = %5
  %30 = load ptr, ptr %2, align 8, !tbaa !3
  %31 = getelementptr inbounds nuw %struct.sat_solver3_t, ptr %30, i32 0, i32 1
  %32 = load i32, ptr %31, align 4, !tbaa !76
  %33 = sext i32 %32 to i64
  %34 = mul i64 %33, 16
  %35 = uitofp i64 %34 to double
  %36 = load double, ptr %4, align 8, !tbaa !34
  %37 = fadd double %36, %35
  store double %37, ptr %4, align 8, !tbaa !34
  %38 = load ptr, ptr %2, align 8, !tbaa !3
  %39 = getelementptr inbounds nuw %struct.sat_solver3_t, ptr %38, i32 0, i32 1
  %40 = load i32, ptr %39, align 4, !tbaa !76
  %41 = sext i32 %40 to i64
  %42 = mul i64 %41, 4
  %43 = uitofp i64 %42 to double
  %44 = load double, ptr %4, align 8, !tbaa !34
  %45 = fadd double %44, %43
  store double %45, ptr %4, align 8, !tbaa !34
  %46 = load ptr, ptr %2, align 8, !tbaa !3
  %47 = getelementptr inbounds nuw %struct.sat_solver3_t, ptr %46, i32 0, i32 1
  %48 = load i32, ptr %47, align 4, !tbaa !76
  %49 = sext i32 %48 to i64
  %50 = mul i64 %49, 1
  %51 = uitofp i64 %50 to double
  %52 = load double, ptr %4, align 8, !tbaa !34
  %53 = fadd double %52, %51
  store double %53, ptr %4, align 8, !tbaa !34
  %54 = load ptr, ptr %2, align 8, !tbaa !3
  %55 = getelementptr inbounds nuw %struct.sat_solver3_t, ptr %54, i32 0, i32 1
  %56 = load i32, ptr %55, align 4, !tbaa !76
  %57 = sext i32 %56 to i64
  %58 = mul i64 %57, 1
  %59 = uitofp i64 %58 to double
  %60 = load double, ptr %4, align 8, !tbaa !34
  %61 = fadd double %60, %59
  store double %61, ptr %4, align 8, !tbaa !34
  %62 = load ptr, ptr %2, align 8, !tbaa !3
  %63 = getelementptr inbounds nuw %struct.sat_solver3_t, ptr %62, i32 0, i32 1
  %64 = load i32, ptr %63, align 4, !tbaa !76
  %65 = sext i32 %64 to i64
  %66 = mul i64 %65, 1
  %67 = uitofp i64 %66 to double
  %68 = load double, ptr %4, align 8, !tbaa !34
  %69 = fadd double %68, %67
  store double %69, ptr %4, align 8, !tbaa !34
  %70 = load ptr, ptr %2, align 8, !tbaa !3
  %71 = getelementptr inbounds nuw %struct.sat_solver3_t, ptr %70, i32 0, i32 1
  %72 = load i32, ptr %71, align 4, !tbaa !76
  %73 = sext i32 %72 to i64
  %74 = mul i64 %73, 1
  %75 = uitofp i64 %74 to double
  %76 = load double, ptr %4, align 8, !tbaa !34
  %77 = fadd double %76, %75
  store double %77, ptr %4, align 8, !tbaa !34
  %78 = load ptr, ptr %2, align 8, !tbaa !3
  %79 = getelementptr inbounds nuw %struct.sat_solver3_t, ptr %78, i32 0, i32 1
  %80 = load i32, ptr %79, align 4, !tbaa !76
  %81 = sext i32 %80 to i64
  %82 = mul i64 %81, 8
  %83 = uitofp i64 %82 to double
  %84 = load double, ptr %4, align 8, !tbaa !34
  %85 = fadd double %84, %83
  store double %85, ptr %4, align 8, !tbaa !34
  %86 = load ptr, ptr %2, align 8, !tbaa !3
  %87 = getelementptr inbounds nuw %struct.sat_solver3_t, ptr %86, i32 0, i32 18
  %88 = load ptr, ptr %87, align 8, !tbaa !95
  %89 = icmp ne ptr %88, null
  br i1 %89, label %90, label %99

90:                                               ; preds = %29
  %91 = load ptr, ptr %2, align 8, !tbaa !3
  %92 = getelementptr inbounds nuw %struct.sat_solver3_t, ptr %91, i32 0, i32 1
  %93 = load i32, ptr %92, align 4, !tbaa !76
  %94 = sext i32 %93 to i64
  %95 = mul i64 %94, 8
  %96 = uitofp i64 %95 to double
  %97 = load double, ptr %4, align 8, !tbaa !34
  %98 = fadd double %97, %96
  store double %98, ptr %4, align 8, !tbaa !34
  br label %99

99:                                               ; preds = %90, %29
  %100 = load ptr, ptr %2, align 8, !tbaa !3
  %101 = getelementptr inbounds nuw %struct.sat_solver3_t, ptr %100, i32 0, i32 55
  %102 = load ptr, ptr %101, align 8, !tbaa !96
  %103 = icmp ne ptr %102, null
  br i1 %103, label %104, label %113

104:                                              ; preds = %99
  %105 = load ptr, ptr %2, align 8, !tbaa !3
  %106 = getelementptr inbounds nuw %struct.sat_solver3_t, ptr %105, i32 0, i32 1
  %107 = load i32, ptr %106, align 4, !tbaa !76
  %108 = sext i32 %107 to i64
  %109 = mul i64 %108, 8
  %110 = uitofp i64 %109 to double
  %111 = load double, ptr %4, align 8, !tbaa !34
  %112 = fadd double %111, %110
  store double %112, ptr %4, align 8, !tbaa !34
  br label %113

113:                                              ; preds = %104, %99
  %114 = load ptr, ptr %2, align 8, !tbaa !3
  %115 = getelementptr inbounds nuw %struct.sat_solver3_t, ptr %114, i32 0, i32 1
  %116 = load i32, ptr %115, align 4, !tbaa !76
  %117 = sext i32 %116 to i64
  %118 = mul i64 %117, 4
  %119 = uitofp i64 %118 to double
  %120 = load double, ptr %4, align 8, !tbaa !34
  %121 = fadd double %120, %119
  store double %121, ptr %4, align 8, !tbaa !34
  %122 = load ptr, ptr %2, align 8, !tbaa !3
  %123 = getelementptr inbounds nuw %struct.sat_solver3_t, ptr %122, i32 0, i32 1
  %124 = load i32, ptr %123, align 4, !tbaa !76
  %125 = sext i32 %124 to i64
  %126 = mul i64 %125, 4
  %127 = uitofp i64 %126 to double
  %128 = load double, ptr %4, align 8, !tbaa !34
  %129 = fadd double %128, %127
  store double %129, ptr %4, align 8, !tbaa !34
  %130 = load ptr, ptr %2, align 8, !tbaa !3
  %131 = getelementptr inbounds nuw %struct.sat_solver3_t, ptr %130, i32 0, i32 1
  %132 = load i32, ptr %131, align 4, !tbaa !76
  %133 = sext i32 %132 to i64
  %134 = mul i64 %133, 4
  %135 = uitofp i64 %134 to double
  %136 = load double, ptr %4, align 8, !tbaa !34
  %137 = fadd double %136, %135
  store double %137, ptr %4, align 8, !tbaa !34
  %138 = load ptr, ptr %2, align 8, !tbaa !3
  %139 = getelementptr inbounds nuw %struct.sat_solver3_t, ptr %138, i32 0, i32 1
  %140 = load i32, ptr %139, align 4, !tbaa !76
  %141 = sext i32 %140 to i64
  %142 = mul i64 %141, 4
  %143 = uitofp i64 %142 to double
  %144 = load double, ptr %4, align 8, !tbaa !34
  %145 = fadd double %144, %143
  store double %145, ptr %4, align 8, !tbaa !34
  %146 = load ptr, ptr %2, align 8, !tbaa !3
  %147 = getelementptr inbounds nuw %struct.sat_solver3_t, ptr %146, i32 0, i32 34
  %148 = getelementptr inbounds nuw %struct.veci_t, ptr %147, i32 0, i32 0
  %149 = load i32, ptr %148, align 8, !tbaa !105
  %150 = sext i32 %149 to i64
  %151 = mul i64 %150, 4
  %152 = uitofp i64 %151 to double
  %153 = load double, ptr %4, align 8, !tbaa !34
  %154 = fadd double %153, %152
  store double %154, ptr %4, align 8, !tbaa !34
  %155 = load ptr, ptr %2, align 8, !tbaa !3
  %156 = getelementptr inbounds nuw %struct.sat_solver3_t, ptr %155, i32 0, i32 35
  %157 = getelementptr inbounds nuw %struct.veci_t, ptr %156, i32 0, i32 0
  %158 = load i32, ptr %157, align 8, !tbaa !106
  %159 = sext i32 %158 to i64
  %160 = mul i64 %159, 4
  %161 = uitofp i64 %160 to double
  %162 = load double, ptr %4, align 8, !tbaa !34
  %163 = fadd double %162, %161
  store double %163, ptr %4, align 8, !tbaa !34
  %164 = load ptr, ptr %2, align 8, !tbaa !3
  %165 = getelementptr inbounds nuw %struct.sat_solver3_t, ptr %164, i32 0, i32 32
  %166 = getelementptr inbounds nuw %struct.veci_t, ptr %165, i32 0, i32 0
  %167 = load i32, ptr %166, align 8, !tbaa !107
  %168 = sext i32 %167 to i64
  %169 = mul i64 %168, 4
  %170 = uitofp i64 %169 to double
  %171 = load double, ptr %4, align 8, !tbaa !34
  %172 = fadd double %171, %170
  store double %172, ptr %4, align 8, !tbaa !34
  %173 = load ptr, ptr %2, align 8, !tbaa !3
  %174 = getelementptr inbounds nuw %struct.sat_solver3_t, ptr %173, i32 0, i32 33
  %175 = getelementptr inbounds nuw %struct.veci_t, ptr %174, i32 0, i32 0
  %176 = load i32, ptr %175, align 8, !tbaa !108
  %177 = sext i32 %176 to i64
  %178 = mul i64 %177, 4
  %179 = uitofp i64 %178 to double
  %180 = load double, ptr %4, align 8, !tbaa !34
  %181 = fadd double %180, %179
  store double %181, ptr %4, align 8, !tbaa !34
  %182 = load ptr, ptr %2, align 8, !tbaa !3
  %183 = getelementptr inbounds nuw %struct.sat_solver3_t, ptr %182, i32 0, i32 54
  %184 = getelementptr inbounds nuw %struct.veci_t, ptr %183, i32 0, i32 0
  %185 = load i32, ptr %184, align 8, !tbaa !109
  %186 = sext i32 %185 to i64
  %187 = mul i64 %186, 4
  %188 = uitofp i64 %187 to double
  %189 = load double, ptr %4, align 8, !tbaa !34
  %190 = fadd double %189, %188
  store double %190, ptr %4, align 8, !tbaa !34
  %191 = load ptr, ptr %2, align 8, !tbaa !3
  %192 = getelementptr inbounds nuw %struct.sat_solver3_t, ptr %191, i32 0, i32 59
  %193 = getelementptr inbounds nuw %struct.veci_t, ptr %192, i32 0, i32 0
  %194 = load i32, ptr %193, align 8, !tbaa !110
  %195 = sext i32 %194 to i64
  %196 = mul i64 %195, 4
  %197 = uitofp i64 %196 to double
  %198 = load double, ptr %4, align 8, !tbaa !34
  %199 = fadd double %198, %197
  store double %199, ptr %4, align 8, !tbaa !34
  %200 = load ptr, ptr %2, align 8, !tbaa !3
  %201 = getelementptr inbounds nuw %struct.sat_solver3_t, ptr %200, i32 0, i32 21
  %202 = getelementptr inbounds nuw %struct.veci_t, ptr %201, i32 0, i32 0
  %203 = load i32, ptr %202, align 8, !tbaa !111
  %204 = sext i32 %203 to i64
  %205 = mul i64 %204, 4
  %206 = uitofp i64 %205 to double
  %207 = load double, ptr %4, align 8, !tbaa !34
  %208 = fadd double %207, %206
  store double %208, ptr %4, align 8, !tbaa !34
  %209 = load ptr, ptr %2, align 8, !tbaa !3
  %210 = getelementptr inbounds nuw %struct.sat_solver3_t, ptr %209, i32 0, i32 70
  %211 = getelementptr inbounds nuw %struct.veci_t, ptr %210, i32 0, i32 0
  %212 = load i32, ptr %211, align 8, !tbaa !112
  %213 = sext i32 %212 to i64
  %214 = mul i64 %213, 4
  %215 = uitofp i64 %214 to double
  %216 = load double, ptr %4, align 8, !tbaa !34
  %217 = fadd double %216, %215
  store double %217, ptr %4, align 8, !tbaa !34
  %218 = load ptr, ptr %2, align 8, !tbaa !3
  %219 = getelementptr inbounds nuw %struct.sat_solver3_t, ptr %218, i32 0, i32 37
  %220 = getelementptr inbounds nuw %struct.veci_t, ptr %219, i32 0, i32 0
  %221 = load i32, ptr %220, align 8, !tbaa !113
  %222 = sext i32 %221 to i64
  %223 = mul i64 %222, 4
  %224 = uitofp i64 %223 to double
  %225 = load double, ptr %4, align 8, !tbaa !34
  %226 = fadd double %225, %224
  store double %226, ptr %4, align 8, !tbaa !34
  %227 = load ptr, ptr %2, align 8, !tbaa !3
  %228 = getelementptr inbounds nuw %struct.sat_solver3_t, ptr %227, i32 0, i32 4
  %229 = call double @Sat_MemMemoryAll(ptr noundef %228)
  %230 = load double, ptr %4, align 8, !tbaa !34
  %231 = fadd double %230, %229
  store double %231, ptr %4, align 8, !tbaa !34
  %232 = load double, ptr %4, align 8, !tbaa !34
  call void @llvm.lifetime.end.p0(i64 8, ptr %4) #13
  call void @llvm.lifetime.end.p0(i64 4, ptr %3) #13
  ret double %232
}