; Function Attrs: nofree norecurse nosync nounwind memory(read, inaccessiblemem: none) uwtable
define double @sat_solver3_memory(ptr noundef readonly captures(none) %0) local_unnamed_addr #5 {
  %2 = getelementptr inbounds nuw i8, ptr %0, i64 4
  %3 = load i32, ptr %2, align 4, !tbaa !73
  %4 = icmp sgt i32 %3, 0
  br i1 %4, label %.lr.ph, label %._crit_edge

.lr.ph:                                           ; preds = %1
  %5 = shl nuw i32 %3, 1
  %6 = getelementptr inbounds nuw i8, ptr %0, i64 88
  %7 = load ptr, ptr %6, align 8, !tbaa !33
  %smax = tail call i32 @llvm.smax.i32(i32 %5, i32 1)
  %wide.trip.count = zext nneg i32 %smax to i64
  br label %8

8:                                                ; preds = %.lr.ph, %8
  %indvars.iv = phi i64 [ 0, %.lr.ph ], [ %indvars.iv.next, %8 ]
  %.057 = phi double [ 6.720000e+02, %.lr.ph ], [ %14, %8 ]
  %9 = getelementptr inbounds nuw %struct.veci_t, ptr %7, i64 %indvars.iv
  %10 = load i32, ptr %9, align 8, !tbaa !35
  %11 = sext i32 %10 to i64
  %12 = shl nsw i64 %11, 2
  %13 = uitofp i64 %12 to double
  %14 = fadd double %.057, %13
  %indvars.iv.next = add nuw nsw i64 %indvars.iv, 1
  %exitcond.not = icmp eq i64 %indvars.iv.next, %wide.trip.count
  br i1 %exitcond.not, label %._crit_edge, label %8, !llvm.loop !93

._crit_edge:                                      ; preds = %8, %1
  %.0.lcssa = phi double [ 6.720000e+02, %1 ], [ %14, %8 ]
  %15 = sext i32 %3 to i64
  %16 = shl nsw i64 %15, 4
  %17 = uitofp i64 %16 to double
  %18 = fadd double %.0.lcssa, %17
  %19 = shl nsw i64 %15, 2
  %20 = uitofp i64 %19 to double
  %21 = fadd double %18, %20
  %22 = uitofp i64 %15 to double
  %23 = fadd double %21, %22
  %24 = fadd double %23, %22
  %25 = fadd double %24, %22
  %26 = fadd double %25, %22
  %27 = shl nsw i64 %15, 3
  %28 = uitofp i64 %27 to double
  %29 = fadd double %26, %28
  %30 = getelementptr inbounds nuw i8, ptr %0, i64 152
  %31 = load ptr, ptr %30, align 8, !tbaa !78
  %.not = icmp eq ptr %31, null
  %32 = fadd double %29, %28
  %.1 = select i1 %.not, double %29, double %32
  %33 = getelementptr inbounds nuw i8, ptr %0, i64 528
  %34 = load ptr, ptr %33, align 8, !tbaa !79
  %.not55 = icmp eq ptr %34, null
  %35 = fadd double %.1, %28
  %.2 = select i1 %.not55, double %.1, double %35
  %36 = fadd double %.2, %20
  %37 = fadd double %36, %20
  %38 = fadd double %37, %20
  %39 = fadd double %38, %20
  %40 = getelementptr inbounds nuw i8, ptr %0, i64 296
  %41 = load i32, ptr %40, align 8, !tbaa !94
  %42 = sext i32 %41 to i64
  %43 = shl nsw i64 %42, 2
  %44 = uitofp i64 %43 to double
  %45 = fadd double %39, %44
  %46 = getelementptr inbounds nuw i8, ptr %0, i64 312
  %47 = load i32, ptr %46, align 8, !tbaa !95
  %48 = sext i32 %47 to i64
  %49 = shl nsw i64 %48, 2
  %50 = uitofp i64 %49 to double
  %51 = fadd double %45, %50
  %52 = getelementptr inbounds nuw i8, ptr %0, i64 264
  %53 = load i32, ptr %52, align 8, !tbaa !96
  %54 = sext i32 %53 to i64
  %55 = shl nsw i64 %54, 2
  %56 = uitofp i64 %55 to double
  %57 = fadd double %51, %56
  %58 = getelementptr inbounds nuw i8, ptr %0, i64 280
  %59 = load i32, ptr %58, align 8, !tbaa !97
  %60 = sext i32 %59 to i64
  %61 = shl nsw i64 %60, 2
  %62 = uitofp i64 %61 to double
  %63 = fadd double %57, %62
  %64 = getelementptr inbounds nuw i8, ptr %0, i64 512
  %65 = load i32, ptr %64, align 8, !tbaa !98
  %66 = sext i32 %65 to i64
  %67 = shl nsw i64 %66, 2
  %68 = uitofp i64 %67 to double
  %69 = fadd double %63, %68
  %70 = getelementptr inbounds nuw i8, ptr %0, i64 552
  %71 = load i32, ptr %70, align 8, !tbaa !99
  %72 = sext i32 %71 to i64
  %73 = shl nsw i64 %72, 2
  %74 = uitofp i64 %73 to double
  %75 = fadd double %69, %74
  %76 = getelementptr inbounds nuw i8, ptr %0, i64 168
  %77 = load i32, ptr %76, align 8, !tbaa !100
  %78 = sext i32 %77 to i64
  %79 = shl nsw i64 %78, 2
  %80 = uitofp i64 %79 to double
  %81 = fadd double %75, %80
  %82 = getelementptr inbounds nuw i8, ptr %0, i64 640
  %83 = load i32, ptr %82, align 8, !tbaa !101
  %84 = sext i32 %83 to i64
  %85 = shl nsw i64 %84, 2
  %86 = uitofp i64 %85 to double
  %87 = fadd double %81, %86
  %88 = getelementptr inbounds nuw i8, ptr %0, i64 336
  %89 = load i32, ptr %88, align 8, !tbaa !102
  %90 = sext i32 %89 to i64
  %91 = shl nsw i64 %90, 2
  %92 = uitofp i64 %91 to double
  %93 = fadd double %87, %92
  %94 = getelementptr inbounds nuw i8, ptr %0, i64 40
  %95 = load i32, ptr %94, align 8, !tbaa !29
  %96 = getelementptr inbounds nuw i8, ptr %0, i64 44
  %97 = load i32, ptr %96, align 4, !tbaa !29
  %98 = add i32 %95, 2
  %99 = add i32 %98, %97
  %100 = sitofp i32 %99 to double
  %101 = getelementptr inbounds nuw i8, ptr %0, i64 48
  %102 = load i32, ptr %101, align 8, !tbaa !40
  %103 = add nsw i32 %102, 2
  %104 = shl nuw i32 1, %103
  %105 = sitofp i32 %104 to double
  %106 = fmul double %100, %105
  %107 = fadd double %93, %106
  ret double %107
}